target datalayout = "e-m:e-p270:32:32-p271:32:32-p272:64:64-i64:64-i128:128-f80:128-n8:16:32:64-S128"
target triple = "x86_64-pc-linux-gnu"

; Function Attrs: alwaysinline nounwind uwtable
define internal void @ma_pcm_interleave_s24__reference(ptr noundef %0, ptr noundef %1, i64 noundef %2, i32 noundef %3) #7 {
  %5 = alloca ptr, align 8
  %6 = alloca ptr, align 8
  %7 = alloca i64, align 8
  %8 = alloca i32, align 4
  %9 = alloca ptr, align 8
  %10 = alloca ptr, align 8
  %11 = alloca i64, align 8
  %12 = alloca i32, align 4
  store ptr %0, ptr %5, align 8
  store ptr %1, ptr %6, align 8
  store i64 %2, ptr %7, align 8
  store i32 %3, ptr %8, align 4
  call void @llvm.lifetime.start.p0(i64 8, ptr %9) #21
  %13 = load ptr, ptr %5, align 8
  store ptr %13, ptr %9, align 8
  call void @llvm.lifetime.start.p0(i64 8, ptr %10) #21
  %14 = load ptr, ptr %6, align 8
  store ptr %14, ptr %10, align 8
  call void @llvm.lifetime.start.p0(i64 8, ptr %11) #21
  store i64 0, ptr %11, align 8
  br label %15

15:                                               ; preds = %95, %4
  %16 = load i64, ptr %11, align 8
  %17 = load i64, ptr %7, align 8
  %18 = icmp ult i64 %16, %17
  br i1 %18, label %19, label %98

19:                                               ; preds = %15
  call void @llvm.lifetime.start.p0(i64 4, ptr %12) #21
  store i32 0, ptr %12, align 4
  br label %20

20:                                               ; preds = %91, %19
  %21 = load i32, ptr %12, align 4
  %22 = load i32, ptr %8, align 4
  %23 = icmp ult i32 %21, %22
  br i1 %23, label %24, label %94

24:                                               ; preds = %20
  %25 = load ptr, ptr %10, align 8
  %26 = load i32, ptr %12, align 4
  %27 = zext i32 %26 to i64
  %28 = getelementptr inbounds nuw ptr, ptr %25, i64 %27
  %29 = load ptr, ptr %28, align 8
  %30 = load i64, ptr %11, align 8
  %31 = mul i64 %30, 3
  %32 = add i64 %31, 0
  %33 = getelementptr inbounds nuw i8, ptr %29, i64 %32
  %34 = load i8, ptr %33, align 1
  %35 = load ptr, ptr %9, align 8
  %36 = load i64, ptr %11, align 8
  %37 = mul i64 %36, 3
  %38 = load i32, ptr %8, align 4
  %39 = zext i32 %38 to i64
  %40 = mul i64 %37, %39
  %41 = load i32, ptr %12, align 4
  %42 = mul i32 %41, 3
  %43 = zext i32 %42 to i64
  %44 = add i64 %40, %43
  %45 = add i64 %44, 0
  %46 = getelementptr inbounds nuw i8, ptr %35, i64 %45
  store i8 %34, ptr %46, align 1
  %47 = load ptr, ptr %10, align 8
  %48 = load i32, ptr %12, align 4
  %49 = zext i32 %48 to i64
  %50 = getelementptr inbounds nuw ptr, ptr %47, i64 %49
  %51 = load ptr, ptr %50, align 8
  %52 = load i64, ptr %11, align 8
  %53 = mul i64 %52, 3
  %54 = add i64 %53, 1
  %55 = getelementptr inbounds nuw i8, ptr %51, i64 %54
  %56 = load i8, ptr %55, align 1
  %57 = load ptr, ptr %9, align 8
  %58 = load i64, ptr %11, align 8
  %59 = mul i64 %58, 3
  %60 = load i32, ptr %8, align 4
  %61 = zext i32 %60 to i64
  %62 = mul i64 %59, %61
  %63 = load i32, ptr %12, align 4
  %64 = mul i32 %63, 3
  %65 = zext i32 %64 to i64
  %66 = add i64 %62, %65
  %67 = add i64 %66, 1
  %68 = getelementptr inbounds nuw i8, ptr %57, i64 %67
  store i8 %56, ptr %68, align 1
  %69 = load ptr, ptr %10, align 8
  %70 = load i32, ptr %12, align 4
  %71 = zext i32 %70 to i64
  %72 = getelementptr inbounds nuw ptr, ptr %69, i64 %71
  %73 = load ptr, ptr %72, align 8
  %74 = load i64, ptr %11, align 8
  %75 = mul i64 %74, 3
  %76 = add i64 %75, 2
  %77 = getelementptr inbounds nuw i8, ptr %73, i64 %76
  %78 = load i8, ptr %77, align 1
  %79 = load ptr, ptr %9, align 8
  %80 = load i64, ptr %11, align 8
  %81 = mul i64 %80, 3
  %82 = load i32, ptr %8, align 4
  %83 = zext i32 %82 to i64
  %84 = mul i64 %81, %83
  %85 = load i32, ptr %12, align 4
  %86 = mul i32 %85, 3
  %87 = zext i32 %86 to i64
  %88 = add i64 %84, %87
  %89 = add i64 %88, 2
  %90 = getelementptr inbounds nuw i8, ptr %79, i64 %89
  store i8 %78, ptr %90, align 1
  br label %91

91:                                               ; preds = %24
  %92 = load i32, ptr %12, align 4
  %93 = add i32 %92, 1
  store i32 %93, ptr %12, align 4
  br label %20

94:                                               ; preds = %20
  call void @llvm.lifetime.end.p0(i64 4, ptr %12) #21
  br label %95

95:                                               ; preds = %94
  %96 = load i64, ptr %11, align 8
  %97 = add i64 %96, 1
  store i64 %97, ptr %11, align 8
  br label %15

98:                                               ; preds = %15
  call void @llvm.lifetime.end.p0(i64 8, ptr %11) #21
  call void @llvm.lifetime.end.p0(i64 8, ptr %10) #21
  call void @llvm.lifetime.end.p0(i64 8, ptr %9) #21
  ret void
}

; Function Attrs: alwaysinline nounwind uwtable
define internal void @ma_pcm_interleave_s24__optimized(ptr noundef %0, ptr noundef %1, i64 noundef %2, i32 noundef %3) #7 {
  %5 = alloca ptr, align 8
  %6 = alloca ptr, align 8
  %7 = alloca i64, align 8
  %8 = alloca i32, align 4
  store ptr %0, ptr %5, align 8
  store ptr %1, ptr %6, align 8
  store i64 %2, ptr %7, align 8
  store i32 %3, ptr %8, align 4
  %9 = load ptr, ptr %5, align 8
  %10 = load ptr, ptr %6, align 8
  %11 = load i64, ptr %7, align 8
  %12 = load i32, ptr %8, align 4
  call void @ma_pcm_interleave_s24__reference(ptr noundef %9, ptr noundef %10, i64 noundef %11, i32 noundef %12)
  ret void
}

; Function Attrs: nounwind uwtable
define hidden void @ma_pcm_interleave_s24(ptr noundef %0, ptr noundef %1, i64 noundef %2, i32 noundef %3) #0 {
  %5 = alloca ptr, align 8
  %6 = alloca ptr, align 8
  %7 = alloca i64, align 8
  %8 = alloca i32, align 4
  store ptr %0, ptr %5, align 8
  store ptr %1, ptr %6, align 8
  store i64 %2, ptr %7, align 8
  store i32 %3, ptr %8, align 4
  %9 = load ptr, ptr %5, align 8
  %10 = load ptr, ptr %6, align 8
  %11 = load i64, ptr %7, align 8
  %12 = load i32, ptr %8, align 4
  call void @ma_pcm_interleave_s24__optimized(ptr noundef %9, ptr noundef %10, i64 noundef %11, i32 noundef %12)
  ret void
}