; Function Attrs: nofree norecurse nosync nounwind memory(read, argmem: readwrite, inaccessiblemem: none) uwtable
define hidden void @ma_pcm_interleave_s24(ptr noundef writeonly captures(none) %0, ptr noundef readonly captures(none) %1, i64 noundef %2, i32 noundef %3) local_unnamed_addr #20 {
  %.not = icmp eq i64 %2, 0
  br i1 %.not, label %ma_pcm_interleave_s24__reference.exit, label %.preheader.lr.ph

.preheader.lr.ph:                                 ; preds = %4
  %.not5 = icmp eq i32 %3, 0
  %5 = zext i32 %3 to i64
  br i1 %.not5, label %ma_pcm_interleave_s24__reference.exit, label %.preheader.us

.preheader.us:                                    ; preds = %.preheader.lr.ph, %._crit_edge.us
  %.028.i4.us = phi i64 [ %27, %._crit_edge.us ], [ 0, %.preheader.lr.ph ]
  %6 = mul i64 %.028.i4.us, 3
  %7 = mul i64 %6, %5
  %8 = getelementptr i8, ptr %0, i64 %7
  br label %9

9:                                                ; preds = %.preheader.us, %9
  %indvars.iv = phi i64 [ 0, %.preheader.us ], [ %indvars.iv.next, %9 ]
  %10 = getelementptr inbounds nuw ptr, ptr %1, i64 %indvars.iv
  %11 = load ptr, ptr %10, align 8
  %12 = getelementptr inbounds nuw i8, ptr %11, i64 %6
  %13 = load i8, ptr %12, align 1
  %14 = mul i64 %indvars.iv, 3
  %15 = and i64 %14, 4294967295
  %16 = getelementptr i8, ptr %8, i64 %15
  store i8 %13, ptr %16, align 1
  %17 = load ptr, ptr %10, align 8
  %18 = getelementptr i8, ptr %17, i64 %6
  %19 = getelementptr i8, ptr %18, i64 1
  %20 = load i8, ptr %19, align 1
  %21 = getelementptr i8, ptr %16, i64 1
  store i8 %20, ptr %21, align 1
  %22 = load ptr, ptr %10, align 8
  %23 = getelementptr i8, ptr %22, i64 %6
  %24 = getelementptr i8, ptr %23, i64 2
  %25 = load i8, ptr %24, align 1
  %26 = getelementptr i8, ptr %16, i64 2
  store i8 %25, ptr %26, align 1
  %indvars.iv.next = add nuw nsw i64 %indvars.iv, 1
  %exitcond.not = icmp eq i64 %indvars.iv.next, %5
  br i1 %exitcond.not, label %._crit_edge.us, label %9

._crit_edge.us:                                   ; preds = %9
  %27 = add nuw i64 %.028.i4.us, 1
  %exitcond8.not = icmp eq i64 %27, %2
  br i1 %exitcond8.not, label %ma_pcm_interleave_s24__reference.exit, label %.preheader.us

ma_pcm_interleave_s24__reference.exit:            ; preds = %._crit_edge.us, %.preheader.lr.ph, %4
  ret void
}